Function: parse_simple_command at 0x14000162a (size: auto-detected)
           Address  Bytes                     Instruction
──────────────────────────────────────────────────────────────────────
  0x00014000162a  55                        push rbp
  0x00014000162b  48 89 e5                  mov rbp,rsp
  0x00014000162e  48 83 ec 20               sub rsp,20h
  0x000140001632  48 89 4d 10               mov [rbp+10h],rcx
  0x000140001636  48 83 7d 10 00            cmp qword ptr [rbp+10h],0
  0x00014000163b  74 0b                     je short 0000000140001648h
  0x00014000163d  48 8b 45 10               mov rax,[rbp+10h]
  0x000140001641  0f b6 00                  movzx eax,byte ptr [rax]
  0x000140001644  84 c0                     test al,al
  0x000140001646  75 0a                     jne short 0000000140001652h
  0x000140001648  b8 ff ff ff ff            mov eax,0FFFFFFFFh
  0x00014000164d  e9 dd 00 00 00            jmp 000000014000172Fh
  0x000140001652  48 8b 45 10               mov rax,[rbp+10h]
  0x000140001656  0f b6 00                  movzx eax,byte ptr [rax]
  0x000140001659  0f be c0                  movsx eax,al
  0x00014000165c  83 f8 72                  cmp eax,72h
  0x00014000165f  0f 84 94 00 00 00         je 00000001400016F9h
  0x000140001665  83 f8 72                  cmp eax,72h
  0x000140001668  0f 8f a1 00 00 00         jg 000000014000170Fh
  0x00014000166e  83 f8 71                  cmp eax,71h
  0x000140001671  74 70                     je short 00000001400016E3h
  0x000140001673  83 f8 71                  cmp eax,71h
  0x000140001676  0f 8f 93 00 00 00         jg 000000014000170Fh
  0x00014000167c  83 f8 68                  cmp eax,68h
  0x00014000167f  74 1f                     je short 00000001400016A0h
  0x000140001681  83 f8 68                  cmp eax,68h
  0x000140001684  0f 8f 85 00 00 00         jg 000000014000170Fh
  0x00014000168a  83 f8 52                  cmp eax,52h
  0x00014000168d  74 6a                     je short 00000001400016F9h
  0x00014000168f  83 f8 52                  cmp eax,52h
  0x000140001692  7f 7b                     jg short 000000014000170Fh
  0x000140001694  83 f8 48                  cmp eax,48h
  0x000140001697  74 07                     je short 00000001400016A0h
  0x000140001699  83 f8 51                  cmp eax,51h
  0x00014000169c  74 45                     je short 00000001400016E3h
  0x00014000169e  eb 6f                     jmp short 000000014000170Fh
  0x0001400016a0  48 8b 45 10               mov rax,[rbp+10h]
  0x0001400016a4  48 83 c0 01               add rax,1
  0x0001400016a8  0f b6 00                  movzx eax,byte ptr [rax]
  0x0001400016ab  3c 65                     cmp al,65h
  0x0001400016ad  75 7a                     jne short 0000000140001729h
  0x0001400016af  48 8b 45 10               mov rax,[rbp+10h]
  0x0001400016b3  48 83 c0 02               add rax,2
  0x0001400016b7  0f b6 00                  movzx eax,byte ptr [rax]
  0x0001400016ba  3c 6c                     cmp al,6Ch
  0x0001400016bc  75 6b                     jne short 0000000140001729h
  0x0001400016be  48 8b 45 10               mov rax,[rbp+10h]
  0x0001400016c2  48 83 c0 03               add rax,3
  0x0001400016c6  0f b6 00                  movzx eax,byte ptr [rax]
  0x0001400016c9  3c 70                     cmp al,70h
  0x0001400016cb  75 5c                     jne short 0000000140001729h
  0x0001400016cd  48 8d 05 a8 29 00 00      lea rax,[14000407Ch]
  0x0001400016d4  48 89 c1                  mov rcx,rax
  0x0001400016d7  e8 14 14 00 00            call 0000000140002AF0h
  0x0001400016dc  b8 00 00 00 00            mov eax,0
  0x0001400016e1  eb 4c                     jmp short 000000014000172Fh
  0x0001400016e3  48 8d 05 9f 29 00 00      lea rax,[140004089h]
  0x0001400016ea  48 89 c1                  mov rcx,rax
  0x0001400016ed  e8 fe 13 00 00            call 0000000140002AF0h
  0x0001400016f2  b8 01 00 00 00            mov eax,1
  0x0001400016f7  eb 36                     jmp short 000000014000172Fh
  0x0001400016f9  48 8d 05 96 29 00 00      lea rax,[140004096h]
  0x000140001700  48 89 c1                  mov rcx,rax
  0x000140001703  e8 e8 13 00 00            call 0000000140002AF0h
  0x000140001708  b8 02 00 00 00            mov eax,2
  0x00014000170d  eb 20                     jmp short 000000014000172Fh
  0x00014000170f  48 8b 45 10               mov rax,[rbp+10h]
  0x000140001713  48 8d 0d 88 29 00 00      lea rcx,[1400040A2h]
  0x00014000171a  48 89 c2                  mov rdx,rax
  0x00014000171d  e8 3e 12 00 00            call 0000000140002960h
  0x000140001722  b8 ff ff ff ff            mov eax,0FFFFFFFFh
  0x000140001727  eb 06                     jmp short 000000014000172Fh
  0x000140001729  90                        nop
  0x00014000172a  b8 ff ff ff ff            mov eax,0FFFFFFFFh
  0x00014000172f  48 83 c4 20               add rsp,20h
  0x000140001733  5d                        pop rbp
  0x000140001734  c3                        ret
Total instructions: 77