Function: calculate_score at 0x14000148d (size: auto-detected)
           Address  Bytes                     Instruction
──────────────────────────────────────────────────────────────────────
  0x00014000148d  55                        push rbp
  0x00014000148e  48 89 e5                  mov rbp,rsp
  0x000140001491  48 83 ec 10               sub rsp,10h
  0x000140001495  89 c8                     mov eax,ecx
  0x000140001497  89 55 18                  mov [rbp+18h],edx
  0x00014000149a  88 45 10                  mov [rbp+10h],al
  0x00014000149d  c7 45 fc 00 00 00 00      mov dword ptr [rbp-4],0
  0x0001400014a4  0f be 45 10               movsx eax,byte ptr [rbp+10h]
  0x0001400014a8  83 f8 66                  cmp eax,66h
  0x0001400014ab  0f 84 aa 00 00 00         je 000000014000155Bh
  0x0001400014b1  83 f8 66                  cmp eax,66h
  0x0001400014b4  0f 8f a8 00 00 00         jg 0000000140001562h
  0x0001400014ba  83 f8 64                  cmp eax,64h
  0x0001400014bd  0f 84 8f 00 00 00         je 0000000140001552h
  0x0001400014c3  83 f8 64                  cmp eax,64h
  0x0001400014c6  0f 8f 96 00 00 00         jg 0000000140001562h
  0x0001400014cc  83 f8 63                  cmp eax,63h
  0x0001400014cf  74 78                     je short 0000000140001549h
  0x0001400014d1  83 f8 63                  cmp eax,63h
  0x0001400014d4  0f 8f 88 00 00 00         jg 0000000140001562h
  0x0001400014da  83 f8 62                  cmp eax,62h
  0x0001400014dd  74 61                     je short 0000000140001540h
  0x0001400014df  83 f8 62                  cmp eax,62h
  0x0001400014e2  7f 7e                     jg short 0000000140001562h
  0x0001400014e4  83 f8 61                  cmp eax,61h
  0x0001400014e7  74 2f                     je short 0000000140001518h
  0x0001400014e9  83 f8 61                  cmp eax,61h
  0x0001400014ec  7f 74                     jg short 0000000140001562h
  0x0001400014ee  83 f8 46                  cmp eax,46h
  0x0001400014f1  74 68                     je short 000000014000155Bh
  0x0001400014f3  83 f8 46                  cmp eax,46h
  0x0001400014f6  7f 6a                     jg short 0000000140001562h
  0x0001400014f8  83 f8 44                  cmp eax,44h
  0x0001400014fb  74 55                     je short 0000000140001552h
  0x0001400014fd  83 f8 44                  cmp eax,44h
  0x000140001500  7f 60                     jg short 0000000140001562h
  0x000140001502  83 f8 43                  cmp eax,43h
  0x000140001505  74 42                     je short 0000000140001549h
  0x000140001507  83 f8 43                  cmp eax,43h
  0x00014000150a  7f 56                     jg short 0000000140001562h
  0x00014000150c  83 f8 41                  cmp eax,41h
  0x00014000150f  74 07                     je short 0000000140001518h
  0x000140001511  83 f8 42                  cmp eax,42h
  0x000140001514  74 2a                     je short 0000000140001540h
  0x000140001516  eb 4a                     jmp short 0000000140001562h
  0x000140001518  c7 45 fc 5a 00 00 00      mov dword ptr [rbp-4],5Ah
  0x00014000151f  83 7d 18 5a               cmp dword ptr [rbp+18h],5Ah
  0x000140001523  74 0e                     je short 0000000140001533h
  0x000140001525  83 7d 18 64               cmp dword ptr [rbp+18h],64h
  0x000140001529  75 10                     jne short 000000014000153Bh
  0x00014000152b  8b 45 fc                  mov eax,[rbp-4]
  0x00014000152e  83 c0 0a                  add eax,0Ah
  0x000140001531  eb 54                     jmp short 0000000140001587h
  0x000140001533  8b 45 fc                  mov eax,[rbp-4]
  0x000140001536  83 c0 05                  add eax,5
  0x000140001539  eb 4c                     jmp short 0000000140001587h
  0x00014000153b  8b 45 fc                  mov eax,[rbp-4]
  0x00014000153e  eb 47                     jmp short 0000000140001587h
  0x000140001540  c7 45 fc 50 00 00 00      mov dword ptr [rbp-4],50h
  0x000140001547  eb 20                     jmp short 0000000140001569h
  0x000140001549  c7 45 fc 46 00 00 00      mov dword ptr [rbp-4],46h
  0x000140001550  eb 17                     jmp short 0000000140001569h
  0x000140001552  c7 45 fc 3c 00 00 00      mov dword ptr [rbp-4],3Ch
  0x000140001559  eb 0e                     jmp short 0000000140001569h
  0x00014000155b  b8 00 00 00 00            mov eax,0
  0x000140001560  eb 25                     jmp short 0000000140001587h
  0x000140001562  b8 ff ff ff ff            mov eax,0FFFFFFFFh
  0x000140001567  eb 1e                     jmp short 0000000140001587h
  0x000140001569  8b 45 18                  mov eax,[rbp+18h]
  0x00014000156c  48 63 d0                  movsxd rdx,eax
  0x00014000156f  48 69 d2 67 66 66 66      imul rdx,66666667h
  0x000140001576  48 c1 ea 20               shr rdx,20h
  0x00014000157a  c1 fa 02                  sar edx,2
  0x00014000157d  c1 f8 1f                  sar eax,1Fh
  0x000140001580  29 c2                     sub edx,eax
  0x000140001582  8b 45 fc                  mov eax,[rbp-4]
  0x000140001585  01 d0                     add eax,edx
  0x000140001587  48 83 c4 10               add rsp,10h
  0x00014000158b  5d                        pop rbp
  0x00014000158c  c3                        ret
Total instructions: 80